; ModuleID = 'source-C-CXX/59/1075.c'
source_filename = "source-C-CXX/59/1075.c"
target datalayout = "e-m:e-p270:32:32-p271:32:32-p272:64:64-i64:64-f80:128-n8:16:32:64-S128"
target triple = "x86_64-pc-linux-gnu"

@.str = private unnamed_addr constant [3 x i8] c"%d\00", align 1
@.str.1 = private unnamed_addr constant [6 x i8] c"empty\00", align 1
@.str.3 = private unnamed_addr constant [7 x i8] c"%d %d\0A\00", align 1
@str = private unnamed_addr constant [4 x i8] c"3 5\00", align 1

; Function Attrs: nofree nounwind sspstrong uwtable
define dso_local i32 @main() local_unnamed_addr #0 {
  %1 = alloca i32, align 4
  %2 = bitcast i32* %1 to i8*
  call void @llvm.lifetime.start.p0i8(i64 4, i8* nonnull %2) #5
  %3 = call i32 (i8*, ...) @__isoc99_scanf(i8* getelementptr inbounds ([3 x i8], [3 x i8]* @.str, i64 0, i64 0), i32* nonnull %1)
  %4 = load i32, i32* %1, align 4, !tbaa !5
  %5 = icmp slt i32 %4, 5
  br i1 %5, label %6, label %8

6:                                                ; preds = %0
  %7 = call i32 (i8*, ...) @printf(i8* nonnull dereferenceable(1) getelementptr inbounds ([6 x i8], [6 x i8]* @.str.1, i64 0, i64 0))
  br label %46

8:                                                ; preds = %0
  %9 = call i32 @puts(i8* nonnull dereferenceable(1) getelementptr inbounds ([4 x i8], [4 x i8]* @str, i64 0, i64 0))
  %10 = load i32, i32* %1, align 4, !tbaa !5
  %11 = icmp slt i32 %10, 7
  br i1 %11, label %46, label %12

12:                                               ; preds = %8, %42
  %13 = phi i32 [ %43, %42 ], [ 7, %8 ]
  %14 = sitofp i32 %13 to double
  %15 = call double @sqrt(double %14) #5
  %16 = fcmp ult double %15, 3.000000e+00
  br i1 %16, label %26, label %21

17:                                               ; preds = %21
  %18 = sitofp i32 %25 to double
  %19 = call double @sqrt(double %14) #5
  %20 = fcmp ult double %19, %18
  br i1 %20, label %26, label %21, !llvm.loop !9

21:                                               ; preds = %12, %17
  %22 = phi i32 [ %25, %17 ], [ 3, %12 ]
  %23 = urem i32 %13, %22
  %24 = icmp eq i32 %23, 0
  %25 = add nuw nsw i32 %22, 1
  br i1 %24, label %42, label %17

26:                                               ; preds = %17, %12
  %27 = add nsw i32 %13, -2
  %28 = sitofp i32 %27 to double
  %29 = call double @sqrt(double %28) #5
  %30 = fcmp ult double %29, 3.000000e+00
  br i1 %30, label %40, label %35

31:                                               ; preds = %35
  %32 = sitofp i32 %39 to double
  %33 = call double @sqrt(double %28) #5
  %34 = fcmp ult double %33, %32
  br i1 %34, label %40, label %35, !llvm.loop !9

35:                                               ; preds = %26, %31
  %36 = phi i32 [ %39, %31 ], [ 3, %26 ]
  %37 = urem i32 %27, %36
  %38 = icmp eq i32 %37, 0
  %39 = add nuw nsw i32 %36, 1
  br i1 %38, label %42, label %31

40:                                               ; preds = %31, %26
  %41 = call i32 (i8*, ...) @printf(i8* nonnull dereferenceable(1) getelementptr inbounds ([7 x i8], [7 x i8]* @.str.3, i64 0, i64 0), i32 %27, i32 %13)
  br label %42

42:                                               ; preds = %21, %35, %40
  %43 = add nuw nsw i32 %13, 2
  %44 = load i32, i32* %1, align 4, !tbaa !5
  %45 = icmp sgt i32 %43, %44
  br i1 %45, label %46, label %12, !llvm.loop !11

46:                                               ; preds = %42, %8, %6
  call void @llvm.lifetime.end.p0i8(i64 4, i8* nonnull %2) #5
  ret i32 0
}

; Function Attrs: argmemonly mustprogress nofree nosync nounwind willreturn
declare void @llvm.lifetime.start.p0i8(i64 immarg, i8* nocapture) #1

; Function Attrs: nofree nounwind
declare noundef i32 @__isoc99_scanf(i8* nocapture noundef readonly, ...) local_unnamed_addr #2

; Function Attrs: nofree nounwind
declare noundef i32 @printf(i8* nocapture noundef readonly, ...) local_unnamed_addr #2

; Function Attrs: nofree nounwind sspstrong uwtable
define dso_local i32 @sushu(i32 %0) local_unnamed_addr #0 {
  %2 = sitofp i32 %0 to double
  %3 = tail call double @sqrt(double %2) #5
  %4 = fcmp ult double %3, 3.000000e+00
  br i1 %4, label %14, label %9

5:                                                ; preds = %9
  %6 = sitofp i32 %13 to double
  %7 = tail call double @sqrt(double %2) #5
  %8 = fcmp ult double %7, %6
  br i1 %8, label %14, label %9, !llvm.loop !9

9:                                                ; preds = %1, %5
  %10 = phi i32 [ %13, %5 ], [ 3, %1 ]
  %11 = srem i32 %0, %10
  %12 = icmp eq i32 %11, 0
  %13 = add nuw nsw i32 %10, 1
  br i1 %12, label %14, label %5

14:                                               ; preds = %5, %9, %1
  %15 = phi i32 [ 1, %1 ], [ 0, %9 ], [ 1, %5 ]
  ret i32 %15
}

; Function Attrs: argmemonly mustprogress nofree nosync nounwind willreturn
declare void @llvm.lifetime.end.p0i8(i64 immarg, i8* nocapture) #1

; Function Attrs: mustprogress nofree nounwind willreturn
declare double @sqrt(double) local_unnamed_addr #3

; Function Attrs: nofree nounwind
declare noundef i32 @puts(i8* nocapture noundef readonly) local_unnamed_addr #4


!llvm.module.flags = !{!0, !1, !2, !3}
!llvm.ident = !{!4}

!0 = !{i32 1, !"wchar_size", i32 4}
!1 = !{i32 7, !"PIC Level", i32 2}
!2 = !{i32 7, !"PIE Level", i32 2}
!3 = !{i32 7, !"uwtable", i32 1}
!4 = !{!"clang version 13.0.0"}
!5 = !{!6, !6, i64 0}
!6 = !{!"int", !7, i64 0}
!7 = !{!"omnipotent char", !8, i64 0}
!8 = !{!"Simple C/C++ TBAA"}
!9 = distinct !{!9, !10}
!10 = !{!"llvm.loop.mustprogress"}
!11 = distinct !{!11, !10}
